target datalayout = "e-m:e-p270:32:32-p271:32:32-p272:64:64-i64:64-i128:128-f80:128-n8:16:32:64-S128"
target triple = "x86_64-pc-linux-gnu"

%struct.FFFilterGraph = type { %struct.AVFilterGraph, ptr, i32, i32, ptr, ptr, %struct.FFFrameQueueGlobal }
%struct.AVFilterGraph = type { ptr, ptr, i32, ptr, i32, i32, ptr, ptr, ptr }
%struct.FFFrameQueueGlobal = type { i8 }
%struct.AVFilterContext = type { ptr, ptr, ptr, ptr, ptr, i32, ptr, ptr, i32, ptr, ptr, i32, i32, ptr, ptr, ptr, ptr, i32, ptr, i32, i32 }
%struct.FilterLink = type { %struct.AVFilterLink, ptr, i64, i64, i32, i32, i64, i64, i64, i64, %struct.AVRational, ptr }
%struct.AVFilterLink = type { ptr, ptr, ptr, ptr, i32, i32, i32, i32, %struct.AVRational, i32, i32, i32, %struct.AVChannelLayout, %struct.AVRational, ptr, i32, %struct.AVFilterFormatsConfig, %struct.AVFilterFormatsConfig }
%struct.AVChannelLayout = type { i32, i32, %union.anon, ptr }
%union.anon = type { i64 }
%struct.AVFilterFormatsConfig = type { ptr, ptr, ptr, ptr, ptr }
%struct.AVRational = type { i32, i32 }
%struct.FilterLinkInternal = type { %struct.FilterLink, ptr, %struct.FFFrameQueue, i32, i32, i64, i32, i32, i32, i32 }
%struct.FFFrameQueue = type { ptr, i64, i64, i64, %struct.FFFrameBucket, i64, i64, i64, i64, i32 }
%struct.FFFrameBucket = type { ptr }

@.str.3 = private unnamed_addr constant [30 x i8] c"Assertion %s failed at %s:%d\0A\00", align 1
@.str.5 = private unnamed_addr constant [28 x i8] c"libavfilter/avfiltergraph.c\00", align 1
@.str.64 = private unnamed_addr constant [22 x i8] c"n == sink_links_count\00", align 1

; Function Attrs: inlinehint nounwind uwtable
define internal ptr @fffiltergraph(ptr noundef %0) #3 {
  %2 = alloca ptr, align 8
  store ptr %0, ptr %2, align 8, !tbaa !9
  %3 = load ptr, ptr %2, align 8, !tbaa !9
  ret ptr %3
}

; Function Attrs: inlinehint nounwind uwtable
define internal ptr @ff_link_internal(ptr noundef %0) #3 {
  %2 = alloca ptr, align 8
  store ptr %0, ptr %2, align 8, !tbaa !33
  %3 = load ptr, ptr %2, align 8, !tbaa !33
  ret ptr %3
}

; Function Attrs: nounwind uwtable
define internal i32 @graph_config_pointers(ptr noundef %0, ptr noundef %1) #0 {
  %3 = alloca i32, align 4
  %4 = alloca ptr, align 8
  %5 = alloca ptr, align 8
  %6 = alloca i32, align 4
  %7 = alloca i32, align 4
  %8 = alloca i32, align 4
  %9 = alloca i32, align 4
  %10 = alloca ptr, align 8
  %11 = alloca ptr, align 8
  %12 = alloca i32, align 4
  store ptr %0, ptr %4, align 8, !tbaa !9
  store ptr %1, ptr %5, align 8, !tbaa !54
  call void @llvm.lifetime.start.p0(i64 4, ptr %6) #11
  call void @llvm.lifetime.start.p0(i64 4, ptr %7) #11
  call void @llvm.lifetime.start.p0(i64 4, ptr %8) #11
  store i32 0, ptr %8, align 4, !tbaa !20
  call void @llvm.lifetime.start.p0(i64 4, ptr %9) #11
  store i32 0, ptr %9, align 4, !tbaa !20
  call void @llvm.lifetime.start.p0(i64 8, ptr %10) #11
  call void @llvm.lifetime.start.p0(i64 8, ptr %11) #11
  store i32 0, ptr %6, align 4, !tbaa !20
  br label %13

13:                                               ; preds = %86, %2
  %14 = load i32, ptr %6, align 4, !tbaa !20
  %15 = load ptr, ptr %4, align 8, !tbaa !9
  %16 = getelementptr inbounds nuw %struct.AVFilterGraph, ptr %15, i32 0, i32 2
  %17 = load i32, ptr %16, align 8, !tbaa !21
  %18 = icmp ult i32 %14, %17
  br i1 %18, label %19, label %89

19:                                               ; preds = %13
  %20 = load ptr, ptr %4, align 8, !tbaa !9
  %21 = getelementptr inbounds nuw %struct.AVFilterGraph, ptr %20, i32 0, i32 1
  %22 = load ptr, ptr %21, align 8, !tbaa !22
  %23 = load i32, ptr %6, align 4, !tbaa !20
  %24 = zext i32 %23 to i64
  %25 = getelementptr inbounds nuw ptr, ptr %22, i64 %24
  %26 = load ptr, ptr %25, align 8, !tbaa !18
  store ptr %26, ptr %10, align 8, !tbaa !18
  store i32 0, ptr %7, align 4, !tbaa !20
  br label %27

27:                                               ; preds = %43, %19
  %28 = load i32, ptr %7, align 4, !tbaa !20
  %29 = load ptr, ptr %10, align 8, !tbaa !18
  %30 = getelementptr inbounds nuw %struct.AVFilterContext, ptr %29, i32 0, i32 5
  %31 = load i32, ptr %30, align 8, !tbaa !70
  %32 = icmp ult i32 %28, %31
  br i1 %32, label %33, label %46

33:                                               ; preds = %27
  %34 = load ptr, ptr %10, align 8, !tbaa !18
  %35 = getelementptr inbounds nuw %struct.AVFilterContext, ptr %34, i32 0, i32 4
  %36 = load ptr, ptr %35, align 8, !tbaa !71
  %37 = load i32, ptr %7, align 4, !tbaa !20
  %38 = zext i32 %37 to i64
  %39 = getelementptr inbounds nuw ptr, ptr %36, i64 %38
  %40 = load ptr, ptr %39, align 8, !tbaa !33
  %41 = call ptr @ff_link_internal(ptr noundef %40)
  %42 = getelementptr inbounds nuw %struct.FilterLinkInternal, ptr %41, i32 0, i32 8
  store i32 -1, ptr %42, align 8, !tbaa !94
  br label %43

43:                                               ; preds = %33
  %44 = load i32, ptr %7, align 4, !tbaa !20
  %45 = add i32 %44, 1
  store i32 %45, ptr %7, align 4, !tbaa !20
  br label %27, !llvm.loop !101

46:                                               ; preds = %27
  store i32 0, ptr %7, align 4, !tbaa !20
  br label %47

47:                                               ; preds = %63, %46
  %48 = load i32, ptr %7, align 4, !tbaa !20
  %49 = load ptr, ptr %10, align 8, !tbaa !18
  %50 = getelementptr inbounds nuw %struct.AVFilterContext, ptr %49, i32 0, i32 8
  %51 = load i32, ptr %50, align 8, !tbaa !31
  %52 = icmp ult i32 %48, %51
  br i1 %52, label %53, label %66

53:                                               ; preds = %47
  %54 = load ptr, ptr %10, align 8, !tbaa !18
  %55 = getelementptr inbounds nuw %struct.AVFilterContext, ptr %54, i32 0, i32 7
  %56 = load ptr, ptr %55, align 8, !tbaa !32
  %57 = load i32, ptr %7, align 4, !tbaa !20
  %58 = zext i32 %57 to i64
  %59 = getelementptr inbounds nuw ptr, ptr %56, i64 %58
  %60 = load ptr, ptr %59, align 8, !tbaa !33
  %61 = call ptr @ff_link_internal(ptr noundef %60)
  %62 = getelementptr inbounds nuw %struct.FilterLinkInternal, ptr %61, i32 0, i32 8
  store i32 -1, ptr %62, align 8, !tbaa !94
  br label %63

63:                                               ; preds = %53
  %64 = load i32, ptr %7, align 4, !tbaa !20
  %65 = add i32 %64, 1
  store i32 %65, ptr %7, align 4, !tbaa !20
  br label %47, !llvm.loop !102

66:                                               ; preds = %47
  %67 = load ptr, ptr %10, align 8, !tbaa !18
  %68 = getelementptr inbounds nuw %struct.AVFilterContext, ptr %67, i32 0, i32 8
  %69 = load i32, ptr %68, align 8, !tbaa !31
  %70 = icmp ne i32 %69, 0
  br i1 %70, label %85, label %71

71:                                               ; preds = %66
  %72 = load ptr, ptr %10, align 8, !tbaa !18
  %73 = getelementptr inbounds nuw %struct.AVFilterContext, ptr %72, i32 0, i32 5
  %74 = load i32, ptr %73, align 8, !tbaa !70
  %75 = load i32, ptr %8, align 4, !tbaa !20
  %76 = sub nsw i32 2147483647, %75
  %77 = icmp ugt i32 %74, %76
  br i1 %77, label %78, label %79

78:                                               ; preds = %71
  store i32 -22, ptr %3, align 4
  store i32 1, ptr %12, align 4
  br label %169

79:                                               ; preds = %71
  %80 = load ptr, ptr %10, align 8, !tbaa !18
  %81 = getelementptr inbounds nuw %struct.AVFilterContext, ptr %80, i32 0, i32 5
  %82 = load i32, ptr %81, align 8, !tbaa !70
  %83 = load i32, ptr %8, align 4, !tbaa !20
  %84 = add i32 %83, %82
  store i32 %84, ptr %8, align 4, !tbaa !20
  br label %85

85:                                               ; preds = %79, %66
  br label %86

86:                                               ; preds = %85
  %87 = load i32, ptr %6, align 4, !tbaa !20
  %88 = add i32 %87, 1
  store i32 %88, ptr %6, align 4, !tbaa !20
  br label %13, !llvm.loop !103

89:                                               ; preds = %13
  %90 = load i32, ptr %8, align 4, !tbaa !20
  %91 = sext i32 %90 to i64
  %92 = call noalias ptr @av_calloc(i64 noundef %91, i64 noundef 8)
  store ptr %92, ptr %11, align 8, !tbaa !104
  %93 = load ptr, ptr %11, align 8, !tbaa !104
  %94 = icmp ne ptr %93, null
  br i1 %94, label %96, label %95

95:                                               ; preds = %89
  store i32 -12, ptr %3, align 4
  store i32 1, ptr %12, align 4
  br label %169

96:                                               ; preds = %89
  store i32 0, ptr %6, align 4, !tbaa !20
  br label %97

97:                                               ; preds = %149, %96
  %98 = load i32, ptr %6, align 4, !tbaa !20
  %99 = load ptr, ptr %4, align 8, !tbaa !9
  %100 = getelementptr inbounds nuw %struct.AVFilterGraph, ptr %99, i32 0, i32 2
  %101 = load i32, ptr %100, align 8, !tbaa !21
  %102 = icmp ult i32 %98, %101
  br i1 %102, label %103, label %152

103:                                              ; preds = %97
  %104 = load ptr, ptr %4, align 8, !tbaa !9
  %105 = getelementptr inbounds nuw %struct.AVFilterGraph, ptr %104, i32 0, i32 1
  %106 = load ptr, ptr %105, align 8, !tbaa !22
  %107 = load i32, ptr %6, align 4, !tbaa !20
  %108 = zext i32 %107 to i64
  %109 = getelementptr inbounds nuw ptr, ptr %106, i64 %108
  %110 = load ptr, ptr %109, align 8, !tbaa !18
  store ptr %110, ptr %10, align 8, !tbaa !18
  %111 = load ptr, ptr %10, align 8, !tbaa !18
  %112 = getelementptr inbounds nuw %struct.AVFilterContext, ptr %111, i32 0, i32 8
  %113 = load i32, ptr %112, align 8, !tbaa !31
  %114 = icmp ne i32 %113, 0
  br i1 %114, label %148, label %115

115:                                              ; preds = %103
  store i32 0, ptr %7, align 4, !tbaa !20
  br label %116

116:                                              ; preds = %144, %115
  %117 = load i32, ptr %7, align 4, !tbaa !20
  %118 = load ptr, ptr %10, align 8, !tbaa !18
  %119 = getelementptr inbounds nuw %struct.AVFilterContext, ptr %118, i32 0, i32 5
  %120 = load i32, ptr %119, align 8, !tbaa !70
  %121 = icmp ult i32 %117, %120
  br i1 %121, label %122, label %147

122:                                              ; preds = %116
  %123 = load ptr, ptr %10, align 8, !tbaa !18
  %124 = getelementptr inbounds nuw %struct.AVFilterContext, ptr %123, i32 0, i32 4
  %125 = load ptr, ptr %124, align 8, !tbaa !71
  %126 = load i32, ptr %7, align 4, !tbaa !20
  %127 = zext i32 %126 to i64
  %128 = getelementptr inbounds nuw ptr, ptr %125, i64 %127
  %129 = load ptr, ptr %128, align 8, !tbaa !33
  %130 = call ptr @ff_link_internal(ptr noundef %129)
  %131 = load ptr, ptr %11, align 8, !tbaa !104
  %132 = load i32, ptr %9, align 4, !tbaa !20
  %133 = sext i32 %132 to i64
  %134 = getelementptr inbounds ptr, ptr %131, i64 %133
  store ptr %130, ptr %134, align 8, !tbaa !105
  %135 = load i32, ptr %9, align 4, !tbaa !20
  %136 = load ptr, ptr %11, align 8, !tbaa !104
  %137 = load i32, ptr %9, align 4, !tbaa !20
  %138 = sext i32 %137 to i64
  %139 = getelementptr inbounds ptr, ptr %136, i64 %138
  %140 = load ptr, ptr %139, align 8, !tbaa !105
  %141 = getelementptr inbounds nuw %struct.FilterLinkInternal, ptr %140, i32 0, i32 8
  store i32 %135, ptr %141, align 8, !tbaa !94
  %142 = load i32, ptr %9, align 4, !tbaa !20
  %143 = add nsw i32 %142, 1
  store i32 %143, ptr %9, align 4, !tbaa !20
  br label %144

144:                                              ; preds = %122
  %145 = load i32, ptr %7, align 4, !tbaa !20
  %146 = add i32 %145, 1
  store i32 %146, ptr %7, align 4, !tbaa !20
  br label %116, !llvm.loop !107

147:                                              ; preds = %116
  br label %148

148:                                              ; preds = %147, %103
  br label %149

149:                                              ; preds = %148
  %150 = load i32, ptr %6, align 4, !tbaa !20
  %151 = add i32 %150, 1
  store i32 %151, ptr %6, align 4, !tbaa !20
  br label %97, !llvm.loop !108

152:                                              ; preds = %97
  br label %153

153:                                              ; preds = %152
  %154 = load i32, ptr %9, align 4, !tbaa !20
  %155 = load i32, ptr %8, align 4, !tbaa !20
  %156 = icmp eq i32 %154, %155
  br i1 %156, label %158, label %157

157:                                              ; preds = %153
  call void (ptr, i32, ptr, ...) @av_log(ptr noundef null, i32 noundef 0, ptr noundef @.str.3, ptr noundef @.str.64, ptr noundef @.str.5, i32 noundef 1289)
  call void @abort() #13
  unreachable

158:                                              ; preds = %153
  br label %159

159:                                              ; preds = %158
  br label %160

160:                                              ; preds = %159
  %161 = load ptr, ptr %11, align 8, !tbaa !104
  %162 = load ptr, ptr %4, align 8, !tbaa !9
  %163 = call ptr @fffiltergraph(ptr noundef %162)
  %164 = getelementptr inbounds nuw %struct.FFFilterGraph, ptr %163, i32 0, i32 1
  store ptr %161, ptr %164, align 8, !tbaa !109
  %165 = load i32, ptr %8, align 4, !tbaa !20
  %166 = load ptr, ptr %4, align 8, !tbaa !9
  %167 = call ptr @fffiltergraph(ptr noundef %166)
  %168 = getelementptr inbounds nuw %struct.FFFilterGraph, ptr %167, i32 0, i32 2
  store i32 %165, ptr %168, align 8, !tbaa !110
  store i32 0, ptr %3, align 4
  store i32 1, ptr %12, align 4
  br label %169

169:                                              ; preds = %160, %95, %78
  call void @llvm.lifetime.end.p0(i64 8, ptr %11) #11
  call void @llvm.lifetime.end.p0(i64 8, ptr %10) #11
  call void @llvm.lifetime.end.p0(i64 4, ptr %9) #11
  call void @llvm.lifetime.end.p0(i64 4, ptr %8) #11
  call void @llvm.lifetime.end.p0(i64 4, ptr %7) #11
  call void @llvm.lifetime.end.p0(i64 4, ptr %6) #11
  %170 = load i32, ptr %3, align 4
  ret i32 %170
}