; Function Attrs: nounwind uwtable
define internal fastcc range(i32 -22, 1) i32 @graph_config_pointers(ptr noundef captures(none) %0) unnamed_addr #0 {
  %2 = getelementptr inbounds nuw i8, ptr %0, i64 16
  %3 = load i32, ptr %2, align 8, !tbaa !14
  %.not26 = icmp eq i32 %3, 0
  br i1 %.not26, label %._crit_edge16, label %.lr.ph15

.lr.ph15:                                         ; preds = %1
  %4 = getelementptr inbounds nuw i8, ptr %0, i64 8
  %5 = load ptr, ptr %4, align 8, !tbaa !15
  %wide.trip.count40 = zext i32 %3 to i64
  br label %6

6:                                                ; preds = %.lr.ph15, %._crit_edge
  %indvars.iv37 = phi i64 [ 0, %.lr.ph15 ], [ %indvars.iv.next38, %._crit_edge ]
  %.04613 = phi i32 [ 0, %.lr.ph15 ], [ %.147, %._crit_edge ]
  %7 = getelementptr inbounds nuw ptr, ptr %5, i64 %indvars.iv37
  %8 = load ptr, ptr %7, align 8, !tbaa !18
  %9 = getelementptr inbounds nuw i8, ptr %8, i64 40
  %10 = load i32, ptr %9, align 8, !tbaa !58
  %.not27 = icmp eq i32 %10, 0
  br i1 %.not27, label %.preheader2, label %.lr.ph

.lr.ph:                                           ; preds = %6
  %11 = getelementptr inbounds nuw i8, ptr %8, i64 32
  %12 = load ptr, ptr %11, align 8, !tbaa !59
  %wide.trip.count = zext i32 %10 to i64
  br label %17

.preheader2:                                      ; preds = %17, %6
  %13 = getelementptr inbounds nuw i8, ptr %8, i64 64
  %14 = load i32, ptr %13, align 8, !tbaa !29
  %.not28 = icmp eq i32 %14, 0
  br i1 %.not28, label %25, label %.lr.ph10

.lr.ph10:                                         ; preds = %.preheader2
  %15 = getelementptr inbounds nuw i8, ptr %8, i64 56
  %16 = load ptr, ptr %15, align 8, !tbaa !30
  %wide.trip.count35 = zext i32 %14 to i64
  br label %21

17:                                               ; preds = %.lr.ph, %17
  %indvars.iv = phi i64 [ 0, %.lr.ph ], [ %indvars.iv.next, %17 ]
  %18 = getelementptr inbounds nuw ptr, ptr %12, i64 %indvars.iv
  %19 = load ptr, ptr %18, align 8, !tbaa !31
  %20 = getelementptr inbounds nuw i8, ptr %19, i64 392
  store i32 -1, ptr %20, align 8, !tbaa !173
  %indvars.iv.next = add nuw nsw i64 %indvars.iv, 1
  %exitcond.not = icmp eq i64 %indvars.iv.next, %wide.trip.count
  br i1 %exitcond.not, label %.preheader2, label %17, !llvm.loop !180

21:                                               ; preds = %.lr.ph10, %21
  %indvars.iv32 = phi i64 [ 0, %.lr.ph10 ], [ %indvars.iv.next33, %21 ]
  %22 = getelementptr inbounds nuw ptr, ptr %16, i64 %indvars.iv32
  %23 = load ptr, ptr %22, align 8, !tbaa !31
  %24 = getelementptr inbounds nuw i8, ptr %23, i64 392
  store i32 -1, ptr %24, align 8, !tbaa !173
  %indvars.iv.next33 = add nuw nsw i64 %indvars.iv32, 1
  %exitcond36.not = icmp eq i64 %indvars.iv.next33, %wide.trip.count35
  br i1 %exitcond36.not, label %._crit_edge, label %21, !llvm.loop !181

25:                                               ; preds = %.preheader2
  %26 = sub nsw i32 2147483647, %.04613
  %27 = icmp ugt i32 %10, %26
  br i1 %27, label %.loopexit3, label %28

28:                                               ; preds = %25
  %29 = add i32 %10, %.04613
  br label %._crit_edge

._crit_edge:                                      ; preds = %21, %28
  %.147 = phi i32 [ %29, %28 ], [ %.04613, %21 ]
  %indvars.iv.next38 = add nuw nsw i64 %indvars.iv37, 1
  %exitcond41.not = icmp eq i64 %indvars.iv.next38, %wide.trip.count40
  br i1 %exitcond41.not, label %._crit_edge16, label %6, !llvm.loop !182

._crit_edge16:                                    ; preds = %._crit_edge, %1
  %.046.lcssa = phi i32 [ 0, %1 ], [ %.147, %._crit_edge ]
  %30 = sext i32 %.046.lcssa to i64
  %31 = tail call noalias ptr @av_calloc(i64 noundef %30, i64 noundef 8) #14
  %.not = icmp eq ptr %31, null
  br i1 %.not, label %.loopexit3, label %.preheader1

.preheader1:                                      ; preds = %._crit_edge16
  %32 = load i32, ptr %2, align 8, !tbaa !14
  %.not29 = icmp eq i32 %32, 0
  br i1 %.not29, label %._crit_edge24, label %.lr.ph23

.lr.ph23:                                         ; preds = %.preheader1
  %33 = getelementptr inbounds nuw i8, ptr %0, i64 8
  %34 = load ptr, ptr %33, align 8, !tbaa !15
  %wide.trip.count54 = zext i32 %32 to i64
  br label %35

35:                                               ; preds = %.lr.ph23, %.loopexit
  %indvars.iv51 = phi i64 [ 0, %.lr.ph23 ], [ %indvars.iv.next52, %.loopexit ]
  %.04522 = phi i32 [ 0, %.lr.ph23 ], [ %.2, %.loopexit ]
  %36 = getelementptr inbounds nuw ptr, ptr %34, i64 %indvars.iv51
  %37 = load ptr, ptr %36, align 8, !tbaa !18
  %38 = getelementptr inbounds nuw i8, ptr %37, i64 64
  %39 = load i32, ptr %38, align 8, !tbaa !29
  %.not56 = icmp eq i32 %39, 0
  br i1 %.not56, label %.preheader, label %.loopexit

.preheader:                                       ; preds = %35
  %40 = getelementptr inbounds nuw i8, ptr %37, i64 40
  %41 = load i32, ptr %40, align 8, !tbaa !58
  %.not30 = icmp eq i32 %41, 0
  br i1 %.not30, label %.loopexit, label %.lr.ph19

.lr.ph19:                                         ; preds = %.preheader
  %42 = getelementptr inbounds nuw i8, ptr %37, i64 32
  %43 = load ptr, ptr %42, align 8, !tbaa !59
  %44 = sext i32 %.04522 to i64
  %wide.trip.count49 = zext i32 %41 to i64
  br label %45

45:                                               ; preds = %.lr.ph19, %45
  %indvars.iv44 = phi i64 [ 0, %.lr.ph19 ], [ %indvars.iv.next45, %45 ]
  %indvars.iv42 = phi i64 [ %44, %.lr.ph19 ], [ %indvars.iv.next43, %45 ]
  %46 = getelementptr inbounds nuw ptr, ptr %43, i64 %indvars.iv44
  %47 = load ptr, ptr %46, align 8, !tbaa !31
  %48 = getelementptr inbounds ptr, ptr %31, i64 %indvars.iv42
  store ptr %47, ptr %48, align 8, !tbaa !183
  %49 = getelementptr inbounds nuw i8, ptr %47, i64 392
  %50 = trunc nsw i64 %indvars.iv42 to i32
  store i32 %50, ptr %49, align 8, !tbaa !173
  %indvars.iv.next43 = add nsw i64 %indvars.iv42, 1
  %indvars.iv.next45 = add nuw nsw i64 %indvars.iv44, 1
  %exitcond50.not = icmp eq i64 %indvars.iv.next45, %wide.trip.count49
  br i1 %exitcond50.not, label %.loopexit.loopexit, label %45, !llvm.loop !185

.loopexit.loopexit:                               ; preds = %45
  %51 = trunc nsw i64 %indvars.iv.next43 to i32
  br label %.loopexit

.loopexit:                                        ; preds = %.loopexit.loopexit, %.preheader, %35
  %.2 = phi i32 [ %.04522, %35 ], [ %.04522, %.preheader ], [ %51, %.loopexit.loopexit ]
  %indvars.iv.next52 = add nuw nsw i64 %indvars.iv51, 1
  %exitcond55.not = icmp eq i64 %indvars.iv.next52, %wide.trip.count54
  br i1 %exitcond55.not, label %._crit_edge24, label %35, !llvm.loop !186

._crit_edge24:                                    ; preds = %.loopexit, %.preheader1
  %.045.lcssa = phi i32 [ 0, %.preheader1 ], [ %.2, %.loopexit ]
  %52 = icmp eq i32 %.045.lcssa, %.046.lcssa
  br i1 %52, label %54, label %53

53:                                               ; preds = %._crit_edge24
  tail call void (ptr, i32, ptr, ...) @av_log(ptr noundef null, i32 noundef 0, ptr noundef nonnull @.str.3, ptr noundef nonnull @.str.64, ptr noundef nonnull @.str.5, i32 noundef 1289) #14
  tail call void @abort() #16
  unreachable

54:                                               ; preds = %._crit_edge24
  %55 = getelementptr inbounds nuw i8, ptr %0, i64 64
  store ptr %31, ptr %55, align 8, !tbaa !187
  %56 = getelementptr inbounds nuw i8, ptr %0, i64 72
  store i32 %.046.lcssa, ptr %56, align 8, !tbaa !188
  br label %.loopexit3

.loopexit3:                                       ; preds = %25, %._crit_edge16, %54
  %.0 = phi i32 [ 0, %54 ], [ -12, %._crit_edge16 ], [ -22, %25 ]
  ret i32 %.0
}